target datalayout = "e-m:e-p270:32:32-p271:32:32-p272:64:64-i64:64-i128:128-f80:128-n8:16:32:64-S128"
target triple = "x86_64-pc-linux-gnu"

%"class.sat::literal" = type { i32 }
%class.trail = type { ptr }
%"class.euf::th_solver" = type { %"class.sat::extension", %"class.euf::th_model_builder", %"class.euf::th_decompile", %"class.euf::th_internalizer", ptr }
%"class.sat::extension" = type { ptr, i8, i32, %class.symbol, ptr }
%class.symbol = type { ptr }
%"class.euf::th_model_builder" = type { ptr }
%"class.euf::th_decompile" = type { ptr }
%"class.euf::th_internalizer" = type { ptr, %class.ptr_vector, %class.svector.1 }
%class.svector.1 = type { %class.vector.2 }
%class.vector.2 = type { ptr }
%class.ptr_vector = type { %class.vector.0 }
%class.vector.0 = type { ptr }
%class.svector.3 = type { %class.vector.4 }
%class.vector.4 = type { ptr }
%class.svector.7 = type { %class.vector.8 }
%class.vector.8 = type { ptr }
%class.ptr_vector.9 = type { %class.vector.10 }
%class.vector.10 = type { ptr }
%class.arith_util = type { ptr, ptr }
%class.bv_util = type { %class.bv_recognizers, ptr, ptr }
%class.bv_recognizers = type { i32 }
%class.svector.29 = type { %class.vector.30 }
%class.vector.30 = type { ptr }
%class.svector.5 = type { %class.vector.6 }
%class.vector.6 = type { ptr }
%class.vector.11 = type { ptr }
%"class.bv::solver" = type { %"class.euf::th_euf_solver.base", %class.svector.5, i32, i32, %class.bv_util, %class.arith_util, %"struct.bv::solver::stats", %"class.bv::ackerman", %class.bit_blaster, %class.union_find, %class.vector.11, %class.svector.3, %class.vector.12, %class.ptr_vector.13, %class.map, %class.vector.17, %class.svector.5, %class.svector.18, %class.svector.3, i32, %"class.sat::literal", %class.ptr_vector, %class.obj_map, %class.obj_map.24, i8, [2 x %class.svector.29] }
%"class.euf::th_euf_solver.base" = type <{ %"class.euf::th_solver", ptr, %class.ptr_vector, %class.svector.3, i32 }>
%"struct.bv::solver::stats" = type { i32, i32, i32, i32, i32, i32, i32, i32 }
%"class.bv::ackerman" = type { ptr, %class.hashtable, ptr, ptr, i32, i32, i32, i32, %class.svector.7 }
%class.hashtable = type { %class.core_hashtable.base, [4 x i8] }
%class.core_hashtable.base = type <{ ptr, i32, i32, i32 }>
%class.bit_blaster = type { %class.bit_blaster_tpl, %class.bv_util, %class.bool_rewriter }
%class.bit_blaster_tpl = type { %class.bit_blaster_cfg, i64 }
%class.bit_blaster_cfg = type { ptr, ptr, ptr }
%class.bool_rewriter = type { ptr, i8, i8, i8, i8, i8, i8, i32, i8, i32, i32, i8, %class.ptr_vector.9, %class.ptr_vector.9, %class.svector.3, %class.svector.3 }
%class.union_find = type { ptr, ptr, %class.svector.3, %class.svector.3, %class.svector.3, %"class.union_find<bv::solver>::mk_var_trail" }
%"class.union_find<bv::solver>::mk_var_trail" = type { %class.trail, ptr }
%class.vector.12 = type { ptr }
%class.ptr_vector.13 = type { %class.vector.14 }
%class.vector.14 = type { ptr }
%class.map = type { %class.table2map }
%class.table2map = type { %class.core_hashtable.15 }
%class.core_hashtable.15 = type <{ [8 x i8], ptr, i32, i32, i32, [4 x i8] }>
%class.vector.17 = type { ptr }
%class.svector.18 = type { %class.vector.19 }
%class.vector.19 = type { ptr }
%class.obj_map = type { %class.core_hashtable.20 }
%class.core_hashtable.20 = type <{ ptr, i32, i32, i32, [4 x i8] }>
%class.obj_map.24 = type { %class.core_hashtable.25 }
%class.core_hashtable.25 = type <{ ptr, i32, i32, i32, [4 x i8] }>
%class.anon.250 = type { ptr }

; Function Attrs: inlinehint mustprogress uwtable
define internal void @"_ZZN2bv6solver19internalize_circuitEP3appENK4$_22clEjPKP4exprS7_R10ref_vectorIS4_11ast_managerE"(ptr noundef nonnull align 8 dereferenceable(8) %0, i32 noundef %1, ptr noundef %2, ptr noundef %3, ptr noundef nonnull align 8 dereferenceable(16) %4) #9 align 2 {
  %6 = alloca ptr, align 8
  %7 = alloca i32, align 4
  %8 = alloca ptr, align 8
  %9 = alloca ptr, align 8
  %10 = alloca ptr, align 8
  store ptr %0, ptr %6, align 8, !tbaa !246
  store i32 %1, ptr %7, align 4, !tbaa !57
  store ptr %2, ptr %8, align 8, !tbaa !317
  store ptr %3, ptr %9, align 8, !tbaa !317
  store ptr %4, ptr %10, align 8, !tbaa !287
  %11 = load ptr, ptr %6, align 8
  %12 = getelementptr inbounds nuw %class.anon.250, ptr %11, i32 0, i32 0
  %13 = load ptr, ptr %12, align 8, !tbaa !178
  %14 = getelementptr inbounds nuw %"class.bv::solver", ptr %13, i32 0, i32 8
  %15 = load i32, ptr %7, align 4, !tbaa !57
  %16 = load ptr, ptr %8, align 8, !tbaa !317
  %17 = load ptr, ptr %9, align 8, !tbaa !317
  %18 = load ptr, ptr %10, align 8, !tbaa !287
  call void @_ZN15bit_blaster_tplI15bit_blaster_cfgE6mk_norEjPKP4exprS5_R10ref_vectorIS2_11ast_managerE(ptr noundef nonnull align 8 dereferenceable(32) %14, i32 noundef %15, ptr noundef %16, ptr noundef %17, ptr noundef nonnull align 8 dereferenceable(16) %18)
  ret void
}

; Function Attrs: mustprogress nounwind uwtable
define linkonce_odr hidden noundef ptr @_ZNKSt9_Any_data9_M_accessEv(ptr noundef nonnull align 8 dereferenceable(16) %0) #6 comdat align 2 {
  %2 = alloca ptr, align 8
  store ptr %0, ptr %2, align 8, !tbaa !875
  %3 = load ptr, ptr %2, align 8
  %4 = getelementptr inbounds [16 x i8], ptr %3, i64 0, i64 0
  ret ptr %4
}

; Function Attrs: mustprogress uwtable
define internal void @"_ZSt13__invoke_implIvRZN2bv6solver19internalize_circuitEP3appE4$_22JjPKP4exprS9_R10ref_vectorIS6_11ast_managerEEET_St14__invoke_otherOT0_DpOT1_"(ptr noundef nonnull align 8 dereferenceable(8) %0, ptr noundef nonnull align 4 dereferenceable(4) %1, ptr noundef nonnull align 8 dereferenceable(8) %2, ptr noundef nonnull align 8 dereferenceable(8) %3, ptr noundef nonnull align 8 dereferenceable(16) %4) #4 {
  %6 = alloca ptr, align 8
  %7 = alloca ptr, align 8
  %8 = alloca ptr, align 8
  %9 = alloca ptr, align 8
  %10 = alloca ptr, align 8
  store ptr %0, ptr %6, align 8, !tbaa !246
  store ptr %1, ptr %7, align 8, !tbaa !74
  store ptr %2, ptr %8, align 8, !tbaa !877
  store ptr %3, ptr %9, align 8, !tbaa !877
  store ptr %4, ptr %10, align 8, !tbaa !287
  %11 = load ptr, ptr %6, align 8, !tbaa !246
  %12 = load ptr, ptr %7, align 8, !tbaa !74
  %13 = load i32, ptr %12, align 4, !tbaa !57
  %14 = load ptr, ptr %8, align 8, !tbaa !877
  %15 = load ptr, ptr %14, align 8, !tbaa !317
  %16 = load ptr, ptr %9, align 8, !tbaa !877
  %17 = load ptr, ptr %16, align 8, !tbaa !317
  %18 = load ptr, ptr %10, align 8, !tbaa !287
  call void @"_ZZN2bv6solver19internalize_circuitEP3appENK4$_22clEjPKP4exprS7_R10ref_vectorIS4_11ast_managerE"(ptr noundef nonnull align 8 dereferenceable(8) %11, i32 noundef %13, ptr noundef %15, ptr noundef %17, ptr noundef nonnull align 8 dereferenceable(16) %18)
  ret void
}

; Function Attrs: mustprogress nounwind uwtable
define internal noundef nonnull align 8 dereferenceable(8) ptr @"_ZNKSt9_Any_data9_M_accessIZN2bv6solver19internalize_circuitEP3appE4$_22EERKT_v"(ptr noundef nonnull align 8 dereferenceable(16) %0) #6 align 2 {
  %2 = alloca ptr, align 8
  store ptr %0, ptr %2, align 8, !tbaa !875
  %3 = load ptr, ptr %2, align 8
  %4 = call noundef ptr @_ZNKSt9_Any_data9_M_accessEv(ptr noundef nonnull align 8 dereferenceable(16) %3) #3
  ret ptr %4
}

; Function Attrs: mustprogress uwtable
define internal void @"_ZSt10__invoke_rIvRZN2bv6solver19internalize_circuitEP3appE4$_22JjPKP4exprS9_R10ref_vectorIS6_11ast_managerEEENSt9enable_ifIX16is_invocable_r_vIT_T0_DpT1_EESF_E4typeEOSG_DpOSH_"(ptr noundef nonnull align 8 dereferenceable(8) %0, ptr noundef nonnull align 4 dereferenceable(4) %1, ptr noundef nonnull align 8 dereferenceable(8) %2, ptr noundef nonnull align 8 dereferenceable(8) %3, ptr noundef nonnull align 8 dereferenceable(16) %4) #4 {
  %6 = alloca ptr, align 8
  %7 = alloca ptr, align 8
  %8 = alloca ptr, align 8
  %9 = alloca ptr, align 8
  %10 = alloca ptr, align 8
  store ptr %0, ptr %6, align 8, !tbaa !246
  store ptr %1, ptr %7, align 8, !tbaa !74
  store ptr %2, ptr %8, align 8, !tbaa !877
  store ptr %3, ptr %9, align 8, !tbaa !877
  store ptr %4, ptr %10, align 8, !tbaa !287
  %11 = load ptr, ptr %6, align 8, !tbaa !246
  %12 = load ptr, ptr %7, align 8, !tbaa !74
  %13 = load ptr, ptr %8, align 8, !tbaa !877
  %14 = load ptr, ptr %9, align 8, !tbaa !877
  %15 = load ptr, ptr %10, align 8, !tbaa !287
  call void @"_ZSt13__invoke_implIvRZN2bv6solver19internalize_circuitEP3appE4$_22JjPKP4exprS9_R10ref_vectorIS6_11ast_managerEEET_St14__invoke_otherOT0_DpOT1_"(ptr noundef nonnull align 8 dereferenceable(8) %11, ptr noundef nonnull align 4 dereferenceable(4) %12, ptr noundef nonnull align 8 dereferenceable(8) %13, ptr noundef nonnull align 8 dereferenceable(8) %14, ptr noundef nonnull align 8 dereferenceable(16) %15)
  ret void
}

; Function Attrs: mustprogress nounwind uwtable
define internal noundef ptr @"_ZNSt14_Function_base13_Base_managerIZN2bv6solver19internalize_circuitEP3appE4$_22E14_M_get_pointerERKSt9_Any_data"(ptr noundef nonnull align 8 dereferenceable(16) %0) #6 align 2 {
  %2 = alloca ptr, align 8
  %3 = alloca ptr, align 8
  store ptr %0, ptr %2, align 8, !tbaa !875
  call void @llvm.lifetime.start.p0(i64 8, ptr %3) #3
  %4 = load ptr, ptr %2, align 8, !tbaa !875
  %5 = call noundef nonnull align 8 dereferenceable(8) ptr @"_ZNKSt9_Any_data9_M_accessIZN2bv6solver19internalize_circuitEP3appE4$_22EERKT_v"(ptr noundef nonnull align 8 dereferenceable(16) %4) #3
  store ptr %5, ptr %3, align 8, !tbaa !246
  %6 = load ptr, ptr %3, align 8, !tbaa !246
  call void @llvm.lifetime.end.p0(i64 8, ptr %3) #3
  ret ptr %6
}

; Function Attrs: mustprogress uwtable
define internal void @"_ZNSt17_Function_handlerIFvjPKP4exprS3_R10ref_vectorIS0_11ast_managerEEZN2bv6solver19internalize_circuitEP3appE4$_22E9_M_invokeERKSt9_Any_dataOjOS3_SJ_S7_"(ptr noundef nonnull align 8 dereferenceable(16) %0, ptr noundef nonnull align 4 dereferenceable(4) %1, ptr noundef nonnull align 8 dereferenceable(8) %2, ptr noundef nonnull align 8 dereferenceable(8) %3, ptr noundef nonnull align 8 dereferenceable(16) %4) #4 align 2 {
  %6 = alloca ptr, align 8
  %7 = alloca ptr, align 8
  %8 = alloca ptr, align 8
  %9 = alloca ptr, align 8
  %10 = alloca ptr, align 8
  store ptr %0, ptr %6, align 8, !tbaa !875
  store ptr %1, ptr %7, align 8, !tbaa !74
  store ptr %2, ptr %8, align 8, !tbaa !877
  store ptr %3, ptr %9, align 8, !tbaa !877
  store ptr %4, ptr %10, align 8, !tbaa !287
  %11 = load ptr, ptr %6, align 8, !tbaa !875
  %12 = call noundef ptr @"_ZNSt14_Function_base13_Base_managerIZN2bv6solver19internalize_circuitEP3appE4$_22E14_M_get_pointerERKSt9_Any_data"(ptr noundef nonnull align 8 dereferenceable(16) %11) #3
  %13 = load ptr, ptr %7, align 8, !tbaa !74
  %14 = load ptr, ptr %8, align 8, !tbaa !877
  %15 = load ptr, ptr %9, align 8, !tbaa !877
  %16 = load ptr, ptr %10, align 8, !tbaa !287
  call void @"_ZSt10__invoke_rIvRZN2bv6solver19internalize_circuitEP3appE4$_22JjPKP4exprS9_R10ref_vectorIS6_11ast_managerEEENSt9enable_ifIX16is_invocable_r_vIT_T0_DpT1_EESF_E4typeEOSG_DpOSH_"(ptr noundef nonnull align 8 dereferenceable(8) %12, ptr noundef nonnull align 4 dereferenceable(4) %13, ptr noundef nonnull align 8 dereferenceable(8) %14, ptr noundef nonnull align 8 dereferenceable(8) %15, ptr noundef nonnull align 8 dereferenceable(16) %16)
  ret void
}